/*
 * Copyright (C) 2021 Xcalibyte (Shenzhen) Limited.
 */

/*
  Copyright (C) 2000, 2001 Silicon Graphics, Inc.  All Rights Reserved.

  This program is free software; you can redistribute it and/or modify it
  under the terms of version 2 of the GNU General Public License as
  published by the Free Software Foundation.

  This program is distributed in the hope that it would be useful, but
  WITHOUT ANY WARRANTY; without even the implied warranty of
  MERCHANTABILITY or FITNESS FOR A PARTICULAR PURPOSE.

  Further, this software is distributed without any warranty that it is
  free of the rightful claim of any third person regarding infringement
  or the like.  Any license provided herein, whether implied or
  otherwise, applies only to this software file.  Patent licenses, if
  any, provided herein do not apply to combinations of this program with
  other software, or any other product whatsoever.

  You should have received a copy of the GNU General Public License along
  with this program; if not, write the Free Software Foundation, Inc., 59
  Temple Place - Suite 330, Boston MA 02111-1307, USA.

  Contact information:  Silicon Graphics, Inc., 1600 Amphitheatre Pky,
  Mountain View, CA 94043, or:

  http://www.sgi.com

  For further information regarding this notice, see:

  http://oss.sgi.com/projects/GenInfo/NoticeExplan

*/


/* auto-generated intrinsics for c++ std_unordered_multimap intrinsic. 2021-10-26 11:57:07 */

/* _ZNKSt3__118unordered_multimap13get_allocatorEv unordered_multimap::get_allocator */
DEF_INTRN_ENTRY(INTRN__ZNKSt3__118unordered_multimap13get_allocatorEv, "_ZNKSt3__118unordered_multimap13get_allocatorEv", BYVAL, NOT_PURE, SIDEEFFECTS,
                DOES_RETURN, NOT_ACTUAL, NOT_CGINTRINSIC, NOT_SLAVE,
                IRETURN_I8, "_ZNKSt3__118unordered_multimap13get_allocatorEv", "unordered_multimap::get_allocator", "std::__1::unordered_multimap<typename _Key, typename _Tp, typename _Hash, typename _Pred, typename _Alloc>::get_allocator()")
/* _ZNKSt3__118unordered_multimap5emptyEv unordered_multimap::empty */
DEF_INTRN_ENTRY(INTRN__ZNKSt3__118unordered_multimap5emptyEv, "_ZNKSt3__118unordered_multimap5emptyEv", BYVAL, NOT_PURE, SIDEEFFECTS,
                DOES_RETURN, NOT_ACTUAL, NOT_CGINTRINSIC, NOT_SLAVE,
                IRETURN_I1, "_ZNKSt3__118unordered_multimap5emptyEv", "unordered_multimap::empty", "std::__1::unordered_multimap<typename _Key, typename _Tp, typename _Hash, typename _Pred, typename _Alloc>::empty()")
/* _ZNKSt3__118unordered_multimap4sizeEv unordered_multimap::size */
DEF_INTRN_ENTRY(INTRN__ZNKSt3__118unordered_multimap4sizeEv, "_ZNKSt3__118unordered_multimap4sizeEv", BYVAL, NOT_PURE, SIDEEFFECTS,
                DOES_RETURN, NOT_ACTUAL, NOT_CGINTRINSIC, NOT_SLAVE,
                IRETURN_I8, "_ZNKSt3__118unordered_multimap4sizeEv", "unordered_multimap::size", "std::__1::unordered_multimap<typename _Key, typename _Tp, typename _Hash, typename _Pred, typename _Alloc>::size()")
/* _ZNKSt3__118unordered_multimap8max_sizeEv unordered_multimap::max_size */
DEF_INTRN_ENTRY(INTRN__ZNKSt3__118unordered_multimap8max_sizeEv, "_ZNKSt3__118unordered_multimap8max_sizeEv", BYVAL, NOT_PURE, SIDEEFFECTS,
                DOES_RETURN, NOT_ACTUAL, NOT_CGINTRINSIC, NOT_SLAVE,
                IRETURN_I8, "_ZNKSt3__118unordered_multimap8max_sizeEv", "unordered_multimap::max_size", "std::__1::unordered_multimap<typename _Key, typename _Tp, typename _Hash, typename _Pred, typename _Alloc>::max_size()")
/* _ZNSt3__118unordered_multimap5beginEv unordered_multimap::begin */
DEF_INTRN_ENTRY(INTRN__ZNSt3__118unordered_multimap5beginEv, "_ZNSt3__118unordered_multimap5beginEv", BYVAL, NOT_PURE, SIDEEFFECTS,
                DOES_RETURN, NOT_ACTUAL, NOT_CGINTRINSIC, NOT_SLAVE,
                IRETURN_I8, "_ZNSt3__118unordered_multimap5beginEv", "unordered_multimap::begin", "std::__1::unordered_multimap<typename _Key, typename _Tp, typename _Hash, typename _Pred, typename _Alloc>::begin()")
/* _ZNSt3__118unordered_multimap3endEv unordered_multimap::end */
DEF_INTRN_ENTRY(INTRN__ZNSt3__118unordered_multimap3endEv, "_ZNSt3__118unordered_multimap3endEv", BYVAL, NOT_PURE, SIDEEFFECTS,
                DOES_RETURN, NOT_ACTUAL, NOT_CGINTRINSIC, NOT_SLAVE,
                IRETURN_I8, "_ZNSt3__118unordered_multimap3endEv", "unordered_multimap::end", "std::__1::unordered_multimap<typename _Key, typename _Tp, typename _Hash, typename _Pred, typename _Alloc>::end()")
/* _ZNKSt3__118unordered_multimap5beginEv unordered_multimap::begin */
DEF_INTRN_ENTRY(INTRN__ZNKSt3__118unordered_multimap5beginEv, "_ZNKSt3__118unordered_multimap5beginEv", BYVAL, NOT_PURE, SIDEEFFECTS,
                DOES_RETURN, NOT_ACTUAL, NOT_CGINTRINSIC, NOT_SLAVE,
                IRETURN_I8, "_ZNKSt3__118unordered_multimap5beginEv", "unordered_multimap::begin", "std::__1::unordered_multimap<typename _Key, typename _Tp, typename _Hash, typename _Pred, typename _Alloc>::begin()")
/* _ZNKSt3__118unordered_multimap3endEv unordered_multimap::end */
DEF_INTRN_ENTRY(INTRN__ZNKSt3__118unordered_multimap3endEv, "_ZNKSt3__118unordered_multimap3endEv", BYVAL, NOT_PURE, SIDEEFFECTS,
                DOES_RETURN, NOT_ACTUAL, NOT_CGINTRINSIC, NOT_SLAVE,
                IRETURN_I8, "_ZNKSt3__118unordered_multimap3endEv", "unordered_multimap::end", "std::__1::unordered_multimap<typename _Key, typename _Tp, typename _Hash, typename _Pred, typename _Alloc>::end()")
/* _ZNSt3__118unordered_multimap6insertERKNS_4pairIKT_T0_EE unordered_multimap::insert */
DEF_INTRN_ENTRY(INTRN__ZNSt3__118unordered_multimap6insertERKNS_4pairIKT_T0_EE, "_ZNSt3__118unordered_multimap6insertERKNS_4pairIKT_T0_EE", BYVAL, NOT_PURE, SIDEEFFECTS,
                DOES_RETURN, NOT_ACTUAL, NOT_CGINTRINSIC, NOT_SLAVE,
                IRETURN_I8, "_ZNSt3__118unordered_multimap6insertERKNS_4pairIKT_T0_EE", "unordered_multimap::insert", "std::__1::unordered_multimap<typename _Key, typename _Tp, typename _Hash, typename _Pred, typename _Alloc>::insert(const std::__1::unordered_multimap::value_type & __x)")
/* _ZNSt3__118unordered_multimap6insertENS_25__hash_map_const_iteratorINS_12__hash_tableINS_17__hash_value_typeIT_T0_EENS_22__unordered_map_hasherIS4_S6_T1_Xaasr8is_emptyIS8_EE5valuentsr17__libcpp_is_finalIS8_EE5valueEEENS_21__unordered_map_equalIS4_S6_T2_Xaasr8is_emptyISB_EE5valuentsr17__libcpp_is_finalISB_EE5valueEEENS_21__rebind_alloc_helperINS_16allocator_traitsIT3_EES6_E4typeEE14const_iteratorEEERKNS_4pairIKS4_S5_EE unordered_multimap::insert */
DEF_INTRN_ENTRY(INTRN__ZNSt3__118unordered_multimap6insertENS_25__hash_map_const_iteratorINS_12__hash_tableINS_17__hash_value_typeIT_T0_EENS_22__unordered_map_hasherIS4_S6_T1_Xaasr8is_emptyIS8_EE5valuentsr17__libcpp_is_finalIS8_EE5valueEEENS_21__unordered_map_equalIS4_S6_T2_Xaasr8is_emptyISB_EE5valuentsr17__libcpp_is_finalISB_EE5valueEEENS_21__rebind_alloc_helperINS_16allocator_traitsIT3_EES6_E4typeEE14const_iteratorEEERKNS_4pairIKS4_S5_EE, "_ZNSt3__118unordered_multimap6insertENS_25__hash_map_const_iteratorINS_12__hash_tableINS_17__hash_value_typeIT_T0_EENS_22__unordered_map_hasherIS4_S6_T1_Xaasr8is_emptyIS8_EE5valuentsr17__libcpp_is_finalIS8_EE5valueEEENS_21__unordered_map_equalIS4_S6_T2_Xaasr8is_emptyISB_EE5valuentsr17__libcpp_is_finalISB_EE5valueEEENS_21__rebind_alloc_helperINS_16allocator_traitsIT3_EES6_E4typeEE14const_iteratorEEERKNS_4pairIKS4_S5_EE", BYVAL, NOT_PURE, SIDEEFFECTS,
                DOES_RETURN, NOT_ACTUAL, NOT_CGINTRINSIC, NOT_SLAVE,
                IRETURN_I8, "_ZNSt3__118unordered_multimap6insertENS_25__hash_map_const_iteratorINS_12__hash_tableINS_17__hash_value_typeIT_T0_EENS_22__unordered_map_hasherIS4_S6_T1_Xaasr8is_emptyIS8_EE5valuentsr17__libcpp_is_finalIS8_EE5valueEEENS_21__unordered_map_equalIS4_S6_T2_Xaasr8is_emptyISB_EE5valuentsr17__libcpp_is_finalISB_EE5valueEEENS_21__rebind_alloc_helperINS_16allocator_traitsIT3_EES6_E4typeEE14const_iteratorEEERKNS_4pairIKS4_S5_EE", "unordered_multimap::insert", "std::__1::unordered_multimap<typename _Key, typename _Tp, typename _Hash, typename _Pred, typename _Alloc>::insert(std::__1::unordered_multimap::const_iterator __p, const std::__1::unordered_multimap::value_type & __x)")
/* _ZNSt3__118unordered_multimap6insertETL0__S1_ unordered_multimap::insert */
DEF_INTRN_ENTRY(INTRN__ZNSt3__118unordered_multimap6insertETL0__S1_, "_ZNSt3__118unordered_multimap6insertETL0__S1_", BYVAL, NOT_PURE, SIDEEFFECTS,
                DOES_RETURN, NOT_ACTUAL, NOT_CGINTRINSIC, NOT_SLAVE,
                IRETURN_V, "_ZNSt3__118unordered_multimap6insertETL0__S1_", "unordered_multimap::insert", "std::__1::unordered_multimap<typename _Key, typename _Tp, typename _Hash, typename _Pred, typename _Alloc>::insert<typename _InputIterator>(_InputIterator __first, _InputIterator __last)")
/* _ZNSt3__118unordered_multimap6insertESt16initializer_listINS_4pairIKT_T0_EEE unordered_multimap::insert */
DEF_INTRN_ENTRY(INTRN__ZNSt3__118unordered_multimap6insertESt16initializer_listINS_4pairIKT_T0_EEE, "_ZNSt3__118unordered_multimap6insertESt16initializer_listINS_4pairIKT_T0_EEE", BYVAL, NOT_PURE, SIDEEFFECTS,
                DOES_RETURN, NOT_ACTUAL, NOT_CGINTRINSIC, NOT_SLAVE,
                IRETURN_V, "_ZNSt3__118unordered_multimap6insertESt16initializer_listINS_4pairIKT_T0_EEE", "unordered_multimap::insert", "std::__1::unordered_multimap<typename _Key, typename _Tp, typename _Hash, typename _Pred, typename _Alloc>::insert(initializer_list<std::__1::unordered_multimap::value_type> __il)")
/* _ZNSt3__118unordered_multimap6insertEONS_4pairIKT_T0_EE unordered_multimap::insert */
DEF_INTRN_ENTRY(INTRN__ZNSt3__118unordered_multimap6insertEONS_4pairIKT_T0_EE, "_ZNSt3__118unordered_multimap6insertEONS_4pairIKT_T0_EE", BYVAL, NOT_PURE, SIDEEFFECTS,
                DOES_RETURN, NOT_ACTUAL, NOT_CGINTRINSIC, NOT_SLAVE,
                IRETURN_I8, "_ZNSt3__118unordered_multimap6insertEONS_4pairIKT_T0_EE", "unordered_multimap::insert", "std::__1::unordered_multimap<typename _Key, typename _Tp, typename _Hash, typename _Pred, typename _Alloc>::insert(std::__1::unordered_multimap::value_type && __x)")
/* _ZNSt3__118unordered_multimap6insertENS_25__hash_map_const_iteratorINS_12__hash_tableINS_17__hash_value_typeIT_T0_EENS_22__unordered_map_hasherIS4_S6_T1_Xaasr8is_emptyIS8_EE5valuentsr17__libcpp_is_finalIS8_EE5valueEEENS_21__unordered_map_equalIS4_S6_T2_Xaasr8is_emptyISB_EE5valuentsr17__libcpp_is_finalISB_EE5valueEEENS_21__rebind_alloc_helperINS_16allocator_traitsIT3_EES6_E4typeEE14const_iteratorEEEONS_4pairIKS4_S5_EE unordered_multimap::insert */
DEF_INTRN_ENTRY(INTRN__ZNSt3__118unordered_multimap6insertENS_25__hash_map_const_iteratorINS_12__hash_tableINS_17__hash_value_typeIT_T0_EENS_22__unordered_map_hasherIS4_S6_T1_Xaasr8is_emptyIS8_EE5valuentsr17__libcpp_is_finalIS8_EE5valueEEENS_21__unordered_map_equalIS4_S6_T2_Xaasr8is_emptyISB_EE5valuentsr17__libcpp_is_finalISB_EE5valueEEENS_21__rebind_alloc_helperINS_16allocator_traitsIT3_EES6_E4typeEE14const_iteratorEEEONS_4pairIKS4_S5_EE, "_ZNSt3__118unordered_multimap6insertENS_25__hash_map_const_iteratorINS_12__hash_tableINS_17__hash_value_typeIT_T0_EENS_22__unordered_map_hasherIS4_S6_T1_Xaasr8is_emptyIS8_EE5valuentsr17__libcpp_is_finalIS8_EE5valueEEENS_21__unordered_map_equalIS4_S6_T2_Xaasr8is_emptyISB_EE5valuentsr17__libcpp_is_finalISB_EE5valueEEENS_21__rebind_alloc_helperINS_16allocator_traitsIT3_EES6_E4typeEE14const_iteratorEEEONS_4pairIKS4_S5_EE", BYVAL, NOT_PURE, SIDEEFFECTS,
                DOES_RETURN, NOT_ACTUAL, NOT_CGINTRINSIC, NOT_SLAVE,
                IRETURN_I8, "_ZNSt3__118unordered_multimap6insertENS_25__hash_map_const_iteratorINS_12__hash_tableINS_17__hash_value_typeIT_T0_EENS_22__unordered_map_hasherIS4_S6_T1_Xaasr8is_emptyIS8_EE5valuentsr17__libcpp_is_finalIS8_EE5valueEEENS_21__unordered_map_equalIS4_S6_T2_Xaasr8is_emptyISB_EE5valuentsr17__libcpp_is_finalISB_EE5valueEEENS_21__rebind_alloc_helperINS_16allocator_traitsIT3_EES6_E4typeEE14const_iteratorEEEONS_4pairIKS4_S5_EE", "unordered_multimap::insert", "std::__1::unordered_multimap<typename _Key, typename _Tp, typename _Hash, typename _Pred, typename _Alloc>::insert(std::__1::unordered_multimap::const_iterator __p, std::__1::unordered_multimap::value_type && __x)")
/* _ZNSt3__118unordered_multimap6insertEOTL0__ unordered_multimap::insert */
DEF_INTRN_ENTRY(INTRN__ZNSt3__118unordered_multimap6insertEOTL0__, "_ZNSt3__118unordered_multimap6insertEOTL0__", BYVAL, NOT_PURE, SIDEEFFECTS,
                DOES_RETURN, NOT_ACTUAL, NOT_CGINTRINSIC, NOT_SLAVE,
                IRETURN_I8, "_ZNSt3__118unordered_multimap6insertEOTL0__", "unordered_multimap::insert", "std::__1::unordered_multimap<typename _Key, typename _Tp, typename _Hash, typename _Pred, typename _Alloc>::insert<typename _Pp, typename >(_Pp && __x)")
/* _ZNSt3__118unordered_multimap6insertENS_25__hash_map_const_iteratorINS_12__hash_tableINS_17__hash_value_typeIT_T0_EENS_22__unordered_map_hasherIS4_S6_T1_Xaasr8is_emptyIS8_EE5valuentsr17__libcpp_is_finalIS8_EE5valueEEENS_21__unordered_map_equalIS4_S6_T2_Xaasr8is_emptyISB_EE5valuentsr17__libcpp_is_finalISB_EE5valueEEENS_21__rebind_alloc_helperINS_16allocator_traitsIT3_EES6_E4typeEE14const_iteratorEEEOTL0__ unordered_multimap::insert */
DEF_INTRN_ENTRY(INTRN__ZNSt3__118unordered_multimap6insertENS_25__hash_map_const_iteratorINS_12__hash_tableINS_17__hash_value_typeIT_T0_EENS_22__unordered_map_hasherIS4_S6_T1_Xaasr8is_emptyIS8_EE5valuentsr17__libcpp_is_finalIS8_EE5valueEEENS_21__unordered_map_equalIS4_S6_T2_Xaasr8is_emptyISB_EE5valuentsr17__libcpp_is_finalISB_EE5valueEEENS_21__rebind_alloc_helperINS_16allocator_traitsIT3_EES6_E4typeEE14const_iteratorEEEOTL0__, "_ZNSt3__118unordered_multimap6insertENS_25__hash_map_const_iteratorINS_12__hash_tableINS_17__hash_value_typeIT_T0_EENS_22__unordered_map_hasherIS4_S6_T1_Xaasr8is_emptyIS8_EE5valuentsr17__libcpp_is_finalIS8_EE5valueEEENS_21__unordered_map_equalIS4_S6_T2_Xaasr8is_emptyISB_EE5valuentsr17__libcpp_is_finalISB_EE5valueEEENS_21__rebind_alloc_helperINS_16allocator_traitsIT3_EES6_E4typeEE14const_iteratorEEEOTL0__", BYVAL, NOT_PURE, SIDEEFFECTS,
                DOES_RETURN, NOT_ACTUAL, NOT_CGINTRINSIC, NOT_SLAVE,
                IRETURN_I8, "_ZNSt3__118unordered_multimap6insertENS_25__hash_map_const_iteratorINS_12__hash_tableINS_17__hash_value_typeIT_T0_EENS_22__unordered_map_hasherIS4_S6_T1_Xaasr8is_emptyIS8_EE5valuentsr17__libcpp_is_finalIS8_EE5valueEEENS_21__unordered_map_equalIS4_S6_T2_Xaasr8is_emptyISB_EE5valuentsr17__libcpp_is_finalISB_EE5valueEEENS_21__rebind_alloc_helperINS_16allocator_traitsIT3_EES6_E4typeEE14const_iteratorEEEOTL0__", "unordered_multimap::insert", "std::__1::unordered_multimap<typename _Key, typename _Tp, typename _Hash, typename _Pred, typename _Alloc>::insert<typename _Pp, typename >(std::__1::unordered_multimap::const_iterator __p, _Pp && __x)")
/* _ZNSt3__118unordered_multimap5eraseENS_25__hash_map_const_iteratorINS_12__hash_tableINS_17__hash_value_typeIT_T0_EENS_22__unordered_map_hasherIS4_S6_T1_Xaasr8is_emptyIS8_EE5valuentsr17__libcpp_is_finalIS8_EE5valueEEENS_21__unordered_map_equalIS4_S6_T2_Xaasr8is_emptyISB_EE5valuentsr17__libcpp_is_finalISB_EE5valueEEENS_21__rebind_alloc_helperINS_16allocator_traitsIT3_EES6_E4typeEE14const_iteratorEEE unordered_multimap::erase */
DEF_INTRN_ENTRY(INTRN__ZNSt3__118unordered_multimap5eraseENS_25__hash_map_const_iteratorINS_12__hash_tableINS_17__hash_value_typeIT_T0_EENS_22__unordered_map_hasherIS4_S6_T1_Xaasr8is_emptyIS8_EE5valuentsr17__libcpp_is_finalIS8_EE5valueEEENS_21__unordered_map_equalIS4_S6_T2_Xaasr8is_emptyISB_EE5valuentsr17__libcpp_is_finalISB_EE5valueEEENS_21__rebind_alloc_helperINS_16allocator_traitsIT3_EES6_E4typeEE14const_iteratorEEE, "_ZNSt3__118unordered_multimap5eraseENS_25__hash_map_const_iteratorINS_12__hash_tableINS_17__hash_value_typeIT_T0_EENS_22__unordered_map_hasherIS4_S6_T1_Xaasr8is_emptyIS8_EE5valuentsr17__libcpp_is_finalIS8_EE5valueEEENS_21__unordered_map_equalIS4_S6_T2_Xaasr8is_emptyISB_EE5valuentsr17__libcpp_is_finalISB_EE5valueEEENS_21__rebind_alloc_helperINS_16allocator_traitsIT3_EES6_E4typeEE14const_iteratorEEE", BYVAL, NOT_PURE, SIDEEFFECTS,
                DOES_RETURN, NOT_ACTUAL, NOT_CGINTRINSIC, NOT_SLAVE,
                IRETURN_I8, "_ZNSt3__118unordered_multimap5eraseENS_25__hash_map_const_iteratorINS_12__hash_tableINS_17__hash_value_typeIT_T0_EENS_22__unordered_map_hasherIS4_S6_T1_Xaasr8is_emptyIS8_EE5valuentsr17__libcpp_is_finalIS8_EE5valueEEENS_21__unordered_map_equalIS4_S6_T2_Xaasr8is_emptyISB_EE5valuentsr17__libcpp_is_finalISB_EE5valueEEENS_21__rebind_alloc_helperINS_16allocator_traitsIT3_EES6_E4typeEE14const_iteratorEEE", "unordered_multimap::erase", "std::__1::unordered_multimap<typename _Key, typename _Tp, typename _Hash, typename _Pred, typename _Alloc>::erase(std::__1::unordered_multimap::const_iterator __p)")
/* _ZNSt3__118unordered_multimap5eraseENS_19__hash_map_iteratorINS_12__hash_tableINS_17__hash_value_typeIT_T0_EENS_22__unordered_map_hasherIS4_S6_T1_Xaasr8is_emptyIS8_EE5valuentsr17__libcpp_is_finalIS8_EE5valueEEENS_21__unordered_map_equalIS4_S6_T2_Xaasr8is_emptyISB_EE5valuentsr17__libcpp_is_finalISB_EE5valueEEENS_21__rebind_alloc_helperINS_16allocator_traitsIT3_EES6_E4typeEE8iteratorEEE unordered_multimap::erase */
DEF_INTRN_ENTRY(INTRN__ZNSt3__118unordered_multimap5eraseENS_19__hash_map_iteratorINS_12__hash_tableINS_17__hash_value_typeIT_T0_EENS_22__unordered_map_hasherIS4_S6_T1_Xaasr8is_emptyIS8_EE5valuentsr17__libcpp_is_finalIS8_EE5valueEEENS_21__unordered_map_equalIS4_S6_T2_Xaasr8is_emptyISB_EE5valuentsr17__libcpp_is_finalISB_EE5valueEEENS_21__rebind_alloc_helperINS_16allocator_traitsIT3_EES6_E4typeEE8iteratorEEE, "_ZNSt3__118unordered_multimap5eraseENS_19__hash_map_iteratorINS_12__hash_tableINS_17__hash_value_typeIT_T0_EENS_22__unordered_map_hasherIS4_S6_T1_Xaasr8is_emptyIS8_EE5valuentsr17__libcpp_is_finalIS8_EE5valueEEENS_21__unordered_map_equalIS4_S6_T2_Xaasr8is_emptyISB_EE5valuentsr17__libcpp_is_finalISB_EE5valueEEENS_21__rebind_alloc_helperINS_16allocator_traitsIT3_EES6_E4typeEE8iteratorEEE", BYVAL, NOT_PURE, SIDEEFFECTS,
                DOES_RETURN, NOT_ACTUAL, NOT_CGINTRINSIC, NOT_SLAVE,
                IRETURN_I8, "_ZNSt3__118unordered_multimap5eraseENS_19__hash_map_iteratorINS_12__hash_tableINS_17__hash_value_typeIT_T0_EENS_22__unordered_map_hasherIS4_S6_T1_Xaasr8is_emptyIS8_EE5valuentsr17__libcpp_is_finalIS8_EE5valueEEENS_21__unordered_map_equalIS4_S6_T2_Xaasr8is_emptyISB_EE5valuentsr17__libcpp_is_finalISB_EE5valueEEENS_21__rebind_alloc_helperINS_16allocator_traitsIT3_EES6_E4typeEE8iteratorEEE", "unordered_multimap::erase", "std::__1::unordered_multimap<typename _Key, typename _Tp, typename _Hash, typename _Pred, typename _Alloc>::erase(std::__1::unordered_multimap::iterator __p)")
/* _ZNSt3__118unordered_multimap5eraseERKT_ unordered_multimap::erase */
DEF_INTRN_ENTRY(INTRN__ZNSt3__118unordered_multimap5eraseERKT_, "_ZNSt3__118unordered_multimap5eraseERKT_", BYVAL, NOT_PURE, SIDEEFFECTS,
                DOES_RETURN, NOT_ACTUAL, NOT_CGINTRINSIC, NOT_SLAVE,
                IRETURN_I8, "_ZNSt3__118unordered_multimap5eraseERKT_", "unordered_multimap::erase", "std::__1::unordered_multimap<typename _Key, typename _Tp, typename _Hash, typename _Pred, typename _Alloc>::erase(const std::__1::unordered_multimap::key_type & __k)")
/* _ZNSt3__118unordered_multimap5eraseENS_25__hash_map_const_iteratorINS_12__hash_tableINS_17__hash_value_typeIT_T0_EENS_22__unordered_map_hasherIS4_S6_T1_Xaasr8is_emptyIS8_EE5valuentsr17__libcpp_is_finalIS8_EE5valueEEENS_21__unordered_map_equalIS4_S6_T2_Xaasr8is_emptyISB_EE5valuentsr17__libcpp_is_finalISB_EE5valueEEENS_21__rebind_alloc_helperINS_16allocator_traitsIT3_EES6_E4typeEE14const_iteratorEEESL_ unordered_multimap::erase */
DEF_INTRN_ENTRY(INTRN__ZNSt3__118unordered_multimap5eraseENS_25__hash_map_const_iteratorINS_12__hash_tableINS_17__hash_value_typeIT_T0_EENS_22__unordered_map_hasherIS4_S6_T1_Xaasr8is_emptyIS8_EE5valuentsr17__libcpp_is_finalIS8_EE5valueEEENS_21__unordered_map_equalIS4_S6_T2_Xaasr8is_emptyISB_EE5valuentsr17__libcpp_is_finalISB_EE5valueEEENS_21__rebind_alloc_helperINS_16allocator_traitsIT3_EES6_E4typeEE14const_iteratorEEESL_, "_ZNSt3__118unordered_multimap5eraseENS_25__hash_map_const_iteratorINS_12__hash_tableINS_17__hash_value_typeIT_T0_EENS_22__unordered_map_hasherIS4_S6_T1_Xaasr8is_emptyIS8_EE5valuentsr17__libcpp_is_finalIS8_EE5valueEEENS_21__unordered_map_equalIS4_S6_T2_Xaasr8is_emptyISB_EE5valuentsr17__libcpp_is_finalISB_EE5valueEEENS_21__rebind_alloc_helperINS_16allocator_traitsIT3_EES6_E4typeEE14const_iteratorEEESL_", BYVAL, NOT_PURE, SIDEEFFECTS,
                DOES_RETURN, NOT_ACTUAL, NOT_CGINTRINSIC, NOT_SLAVE,
                IRETURN_I8, "_ZNSt3__118unordered_multimap5eraseENS_25__hash_map_const_iteratorINS_12__hash_tableINS_17__hash_value_typeIT_T0_EENS_22__unordered_map_hasherIS4_S6_T1_Xaasr8is_emptyIS8_EE5valuentsr17__libcpp_is_finalIS8_EE5valueEEENS_21__unordered_map_equalIS4_S6_T2_Xaasr8is_emptyISB_EE5valuentsr17__libcpp_is_finalISB_EE5valueEEENS_21__rebind_alloc_helperINS_16allocator_traitsIT3_EES6_E4typeEE14const_iteratorEEESL_", "unordered_multimap::erase", "std::__1::unordered_multimap<typename _Key, typename _Tp, typename _Hash, typename _Pred, typename _Alloc>::erase(std::__1::unordered_multimap::const_iterator __first, std::__1::unordered_multimap::const_iterator __last)")
/* _ZNSt3__118unordered_multimap5clearEv unordered_multimap::clear */
DEF_INTRN_ENTRY(INTRN__ZNSt3__118unordered_multimap5clearEv, "_ZNSt3__118unordered_multimap5clearEv", BYVAL, NOT_PURE, SIDEEFFECTS,
                DOES_RETURN, NOT_ACTUAL, NOT_CGINTRINSIC, NOT_SLAVE,
                IRETURN_V, "_ZNSt3__118unordered_multimap5clearEv", "unordered_multimap::clear", "std::__1::unordered_multimap<typename _Key, typename _Tp, typename _Hash, typename _Pred, typename _Alloc>::clear()")
/* _ZNSt3__118unordered_multimap4swapERNS_18unordered_multimapIT_T0_T1_T2_T3_EE unordered_multimap::swap */
DEF_INTRN_ENTRY(INTRN__ZNSt3__118unordered_multimap4swapERNS_18unordered_multimapIT_T0_T1_T2_T3_EE, "_ZNSt3__118unordered_multimap4swapERNS_18unordered_multimapIT_T0_T1_T2_T3_EE", BYVAL, NOT_PURE, SIDEEFFECTS,
                DOES_RETURN, NOT_ACTUAL, NOT_CGINTRINSIC, NOT_SLAVE,
                IRETURN_V, "_ZNSt3__118unordered_multimap4swapERNS_18unordered_multimapIT_T0_T1_T2_T3_EE", "unordered_multimap::swap", "std::__1::unordered_multimap<typename _Key, typename _Tp, typename _Hash, typename _Pred, typename _Alloc>::swap(unordered_multimap<_Key, _Tp, _Hash, _Pred, _Alloc> & __u)")
/* _ZNKSt3__118unordered_multimap13hash_functionEv unordered_multimap::hash_function */
DEF_INTRN_ENTRY(INTRN__ZNKSt3__118unordered_multimap13hash_functionEv, "_ZNKSt3__118unordered_multimap13hash_functionEv", BYVAL, NOT_PURE, SIDEEFFECTS,
                DOES_RETURN, NOT_ACTUAL, NOT_CGINTRINSIC, NOT_SLAVE,
                IRETURN_I8, "_ZNKSt3__118unordered_multimap13hash_functionEv", "unordered_multimap::hash_function", "std::__1::unordered_multimap<typename _Key, typename _Tp, typename _Hash, typename _Pred, typename _Alloc>::hash_function()")
/* _ZNKSt3__118unordered_multimap6key_eqEv unordered_multimap::key_eq */
DEF_INTRN_ENTRY(INTRN__ZNKSt3__118unordered_multimap6key_eqEv, "_ZNKSt3__118unordered_multimap6key_eqEv", BYVAL, NOT_PURE, SIDEEFFECTS,
                DOES_RETURN, NOT_ACTUAL, NOT_CGINTRINSIC, NOT_SLAVE,
                IRETURN_I8, "_ZNKSt3__118unordered_multimap6key_eqEv", "unordered_multimap::key_eq", "std::__1::unordered_multimap<typename _Key, typename _Tp, typename _Hash, typename _Pred, typename _Alloc>::key_eq()")
/* _ZNSt3__118unordered_multimap4findERKT_ unordered_multimap::find */
DEF_INTRN_ENTRY(INTRN__ZNSt3__118unordered_multimap4findERKT_, "_ZNSt3__118unordered_multimap4findERKT_", BYVAL, NOT_PURE, SIDEEFFECTS,
                DOES_RETURN, NOT_ACTUAL, NOT_CGINTRINSIC, NOT_SLAVE,
                IRETURN_I8, "_ZNSt3__118unordered_multimap4findERKT_", "unordered_multimap::find", "std::__1::unordered_multimap<typename _Key, typename _Tp, typename _Hash, typename _Pred, typename _Alloc>::find(const std::__1::unordered_multimap::key_type & __k)")
/* _ZNKSt3__118unordered_multimap4findERKT_ unordered_multimap::find */
DEF_INTRN_ENTRY(INTRN__ZNKSt3__118unordered_multimap4findERKT_, "_ZNKSt3__118unordered_multimap4findERKT_", BYVAL, NOT_PURE, SIDEEFFECTS,
                DOES_RETURN, NOT_ACTUAL, NOT_CGINTRINSIC, NOT_SLAVE,
                IRETURN_I8, "_ZNKSt3__118unordered_multimap4findERKT_", "unordered_multimap::find", "std::__1::unordered_multimap<typename _Key, typename _Tp, typename _Hash, typename _Pred, typename _Alloc>::find(const std::__1::unordered_multimap::key_type & __k)")
/* _ZNKSt3__118unordered_multimap5countERKT_ unordered_multimap::count */
DEF_INTRN_ENTRY(INTRN__ZNKSt3__118unordered_multimap5countERKT_, "_ZNKSt3__118unordered_multimap5countERKT_", BYVAL, NOT_PURE, SIDEEFFECTS,
                DOES_RETURN, NOT_ACTUAL, NOT_CGINTRINSIC, NOT_SLAVE,
                IRETURN_I8, "_ZNKSt3__118unordered_multimap5countERKT_", "unordered_multimap::count", "std::__1::unordered_multimap<typename _Key, typename _Tp, typename _Hash, typename _Pred, typename _Alloc>::count(const std::__1::unordered_multimap::key_type & __k)")
/* _ZNSt3__118unordered_multimap11equal_rangeERKT_ unordered_multimap::equal_range */
DEF_INTRN_ENTRY(INTRN__ZNSt3__118unordered_multimap11equal_rangeERKT_, "_ZNSt3__118unordered_multimap11equal_rangeERKT_", BYVAL, NOT_PURE, SIDEEFFECTS,
                DOES_RETURN, NOT_ACTUAL, NOT_CGINTRINSIC, NOT_SLAVE,
                IRETURN_I8, "_ZNSt3__118unordered_multimap11equal_rangeERKT_", "unordered_multimap::equal_range", "std::__1::unordered_multimap<typename _Key, typename _Tp, typename _Hash, typename _Pred, typename _Alloc>::equal_range(const std::__1::unordered_multimap::key_type & __k)")
/* _ZNKSt3__118unordered_multimap11equal_rangeERKT_ unordered_multimap::equal_range */
DEF_INTRN_ENTRY(INTRN__ZNKSt3__118unordered_multimap11equal_rangeERKT_, "_ZNKSt3__118unordered_multimap11equal_rangeERKT_", BYVAL, NOT_PURE, SIDEEFFECTS,
                DOES_RETURN, NOT_ACTUAL, NOT_CGINTRINSIC, NOT_SLAVE,
                IRETURN_I8, "_ZNKSt3__118unordered_multimap11equal_rangeERKT_", "unordered_multimap::equal_range", "std::__1::unordered_multimap<typename _Key, typename _Tp, typename _Hash, typename _Pred, typename _Alloc>::equal_range(const std::__1::unordered_multimap::key_type & __k)")
/* _ZNKSt3__118unordered_multimap12bucket_countEv unordered_multimap::bucket_count */
DEF_INTRN_ENTRY(INTRN__ZNKSt3__118unordered_multimap12bucket_countEv, "_ZNKSt3__118unordered_multimap12bucket_countEv", BYVAL, NOT_PURE, SIDEEFFECTS,
                DOES_RETURN, NOT_ACTUAL, NOT_CGINTRINSIC, NOT_SLAVE,
                IRETURN_I8, "_ZNKSt3__118unordered_multimap12bucket_countEv", "unordered_multimap::bucket_count", "std::__1::unordered_multimap<typename _Key, typename _Tp, typename _Hash, typename _Pred, typename _Alloc>::bucket_count()")
/* _ZNKSt3__118unordered_multimap16max_bucket_countEv unordered_multimap::max_bucket_count */
DEF_INTRN_ENTRY(INTRN__ZNKSt3__118unordered_multimap16max_bucket_countEv, "_ZNKSt3__118unordered_multimap16max_bucket_countEv", BYVAL, NOT_PURE, SIDEEFFECTS,
                DOES_RETURN, NOT_ACTUAL, NOT_CGINTRINSIC, NOT_SLAVE,
                IRETURN_I8, "_ZNKSt3__118unordered_multimap16max_bucket_countEv", "unordered_multimap::max_bucket_count", "std::__1::unordered_multimap<typename _Key, typename _Tp, typename _Hash, typename _Pred, typename _Alloc>::max_bucket_count()")
/* _ZNKSt3__118unordered_multimap11bucket_sizeENS_12__hash_tableINS_17__hash_value_typeIT_T0_EENS_22__unordered_map_hasherIS3_S5_T1_Xaasr8is_emptyIS7_EE5valuentsr17__libcpp_is_finalIS7_EE5valueEEENS_21__unordered_map_equalIS3_S5_T2_Xaasr8is_emptyISA_EE5valuentsr17__libcpp_is_finalISA_EE5valueEEENS_21__rebind_alloc_helperINS_16allocator_traitsIT3_EES5_E4typeEE9size_typeE unordered_multimap::bucket_size */
DEF_INTRN_ENTRY(INTRN__ZNKSt3__118unordered_multimap11bucket_sizeENS_12__hash_tableINS_17__hash_value_typeIT_T0_EENS_22__unordered_map_hasherIS3_S5_T1_Xaasr8is_emptyIS7_EE5valuentsr17__libcpp_is_finalIS7_EE5valueEEENS_21__unordered_map_equalIS3_S5_T2_Xaasr8is_emptyISA_EE5valuentsr17__libcpp_is_finalISA_EE5valueEEENS_21__rebind_alloc_helperINS_16allocator_traitsIT3_EES5_E4typeEE9size_typeE, "_ZNKSt3__118unordered_multimap11bucket_sizeENS_12__hash_tableINS_17__hash_value_typeIT_T0_EENS_22__unordered_map_hasherIS3_S5_T1_Xaasr8is_emptyIS7_EE5valuentsr17__libcpp_is_finalIS7_EE5valueEEENS_21__unordered_map_equalIS3_S5_T2_Xaasr8is_emptyISA_EE5valuentsr17__libcpp_is_finalISA_EE5valueEEENS_21__rebind_alloc_helperINS_16allocator_traitsIT3_EES5_E4typeEE9size_typeE", BYVAL, NOT_PURE, SIDEEFFECTS,
                DOES_RETURN, NOT_ACTUAL, NOT_CGINTRINSIC, NOT_SLAVE,
                IRETURN_I8, "_ZNKSt3__118unordered_multimap11bucket_sizeENS_12__hash_tableINS_17__hash_value_typeIT_T0_EENS_22__unordered_map_hasherIS3_S5_T1_Xaasr8is_emptyIS7_EE5valuentsr17__libcpp_is_finalIS7_EE5valueEEENS_21__unordered_map_equalIS3_S5_T2_Xaasr8is_emptyISA_EE5valuentsr17__libcpp_is_finalISA_EE5valueEEENS_21__rebind_alloc_helperINS_16allocator_traitsIT3_EES5_E4typeEE9size_typeE", "unordered_multimap::bucket_size", "std::__1::unordered_multimap<typename _Key, typename _Tp, typename _Hash, typename _Pred, typename _Alloc>::bucket_size(std::__1::unordered_multimap::size_type __n)")
/* _ZNKSt3__118unordered_multimap6bucketERKT_ unordered_multimap::bucket */
DEF_INTRN_ENTRY(INTRN__ZNKSt3__118unordered_multimap6bucketERKT_, "_ZNKSt3__118unordered_multimap6bucketERKT_", BYVAL, NOT_PURE, SIDEEFFECTS,
                DOES_RETURN, NOT_ACTUAL, NOT_CGINTRINSIC, NOT_SLAVE,
                IRETURN_I8, "_ZNKSt3__118unordered_multimap6bucketERKT_", "unordered_multimap::bucket", "std::__1::unordered_multimap<typename _Key, typename _Tp, typename _Hash, typename _Pred, typename _Alloc>::bucket(const std::__1::unordered_multimap::key_type & __k)")
/* _ZNSt3__118unordered_multimap5beginENS_12__hash_tableINS_17__hash_value_typeIT_T0_EENS_22__unordered_map_hasherIS3_S5_T1_Xaasr8is_emptyIS7_EE5valuentsr17__libcpp_is_finalIS7_EE5valueEEENS_21__unordered_map_equalIS3_S5_T2_Xaasr8is_emptyISA_EE5valuentsr17__libcpp_is_finalISA_EE5valueEEENS_21__rebind_alloc_helperINS_16allocator_traitsIT3_EES5_E4typeEE9size_typeE unordered_multimap::begin */
DEF_INTRN_ENTRY(INTRN__ZNSt3__118unordered_multimap5beginENS_12__hash_tableINS_17__hash_value_typeIT_T0_EENS_22__unordered_map_hasherIS3_S5_T1_Xaasr8is_emptyIS7_EE5valuentsr17__libcpp_is_finalIS7_EE5valueEEENS_21__unordered_map_equalIS3_S5_T2_Xaasr8is_emptyISA_EE5valuentsr17__libcpp_is_finalISA_EE5valueEEENS_21__rebind_alloc_helperINS_16allocator_traitsIT3_EES5_E4typeEE9size_typeE, "_ZNSt3__118unordered_multimap5beginENS_12__hash_tableINS_17__hash_value_typeIT_T0_EENS_22__unordered_map_hasherIS3_S5_T1_Xaasr8is_emptyIS7_EE5valuentsr17__libcpp_is_finalIS7_EE5valueEEENS_21__unordered_map_equalIS3_S5_T2_Xaasr8is_emptyISA_EE5valuentsr17__libcpp_is_finalISA_EE5valueEEENS_21__rebind_alloc_helperINS_16allocator_traitsIT3_EES5_E4typeEE9size_typeE", BYVAL, NOT_PURE, SIDEEFFECTS,
                DOES_RETURN, NOT_ACTUAL, NOT_CGINTRINSIC, NOT_SLAVE,
                IRETURN_I8, "_ZNSt3__118unordered_multimap5beginENS_12__hash_tableINS_17__hash_value_typeIT_T0_EENS_22__unordered_map_hasherIS3_S5_T1_Xaasr8is_emptyIS7_EE5valuentsr17__libcpp_is_finalIS7_EE5valueEEENS_21__unordered_map_equalIS3_S5_T2_Xaasr8is_emptyISA_EE5valuentsr17__libcpp_is_finalISA_EE5valueEEENS_21__rebind_alloc_helperINS_16allocator_traitsIT3_EES5_E4typeEE9size_typeE", "unordered_multimap::begin", "std::__1::unordered_multimap<typename _Key, typename _Tp, typename _Hash, typename _Pred, typename _Alloc>::begin(std::__1::unordered_multimap::size_type __n)")
/* _ZNSt3__118unordered_multimap3endENS_12__hash_tableINS_17__hash_value_typeIT_T0_EENS_22__unordered_map_hasherIS3_S5_T1_Xaasr8is_emptyIS7_EE5valuentsr17__libcpp_is_finalIS7_EE5valueEEENS_21__unordered_map_equalIS3_S5_T2_Xaasr8is_emptyISA_EE5valuentsr17__libcpp_is_finalISA_EE5valueEEENS_21__rebind_alloc_helperINS_16allocator_traitsIT3_EES5_E4typeEE9size_typeE unordered_multimap::end */
DEF_INTRN_ENTRY(INTRN__ZNSt3__118unordered_multimap3endENS_12__hash_tableINS_17__hash_value_typeIT_T0_EENS_22__unordered_map_hasherIS3_S5_T1_Xaasr8is_emptyIS7_EE5valuentsr17__libcpp_is_finalIS7_EE5valueEEENS_21__unordered_map_equalIS3_S5_T2_Xaasr8is_emptyISA_EE5valuentsr17__libcpp_is_finalISA_EE5valueEEENS_21__rebind_alloc_helperINS_16allocator_traitsIT3_EES5_E4typeEE9size_typeE, "_ZNSt3__118unordered_multimap3endENS_12__hash_tableINS_17__hash_value_typeIT_T0_EENS_22__unordered_map_hasherIS3_S5_T1_Xaasr8is_emptyIS7_EE5valuentsr17__libcpp_is_finalIS7_EE5valueEEENS_21__unordered_map_equalIS3_S5_T2_Xaasr8is_emptyISA_EE5valuentsr17__libcpp_is_finalISA_EE5valueEEENS_21__rebind_alloc_helperINS_16allocator_traitsIT3_EES5_E4typeEE9size_typeE", BYVAL, NOT_PURE, SIDEEFFECTS,
                DOES_RETURN, NOT_ACTUAL, NOT_CGINTRINSIC, NOT_SLAVE,
                IRETURN_I8, "_ZNSt3__118unordered_multimap3endENS_12__hash_tableINS_17__hash_value_typeIT_T0_EENS_22__unordered_map_hasherIS3_S5_T1_Xaasr8is_emptyIS7_EE5valuentsr17__libcpp_is_finalIS7_EE5valueEEENS_21__unordered_map_equalIS3_S5_T2_Xaasr8is_emptyISA_EE5valuentsr17__libcpp_is_finalISA_EE5valueEEENS_21__rebind_alloc_helperINS_16allocator_traitsIT3_EES5_E4typeEE9size_typeE", "unordered_multimap::end", "std::__1::unordered_multimap<typename _Key, typename _Tp, typename _Hash, typename _Pred, typename _Alloc>::end(std::__1::unordered_multimap::size_type __n)")
/* _ZNKSt3__118unordered_multimap5beginENS_12__hash_tableINS_17__hash_value_typeIT_T0_EENS_22__unordered_map_hasherIS3_S5_T1_Xaasr8is_emptyIS7_EE5valuentsr17__libcpp_is_finalIS7_EE5valueEEENS_21__unordered_map_equalIS3_S5_T2_Xaasr8is_emptyISA_EE5valuentsr17__libcpp_is_finalISA_EE5valueEEENS_21__rebind_alloc_helperINS_16allocator_traitsIT3_EES5_E4typeEE9size_typeE unordered_multimap::begin */
DEF_INTRN_ENTRY(INTRN__ZNKSt3__118unordered_multimap5beginENS_12__hash_tableINS_17__hash_value_typeIT_T0_EENS_22__unordered_map_hasherIS3_S5_T1_Xaasr8is_emptyIS7_EE5valuentsr17__libcpp_is_finalIS7_EE5valueEEENS_21__unordered_map_equalIS3_S5_T2_Xaasr8is_emptyISA_EE5valuentsr17__libcpp_is_finalISA_EE5valueEEENS_21__rebind_alloc_helperINS_16allocator_traitsIT3_EES5_E4typeEE9size_typeE, "_ZNKSt3__118unordered_multimap5beginENS_12__hash_tableINS_17__hash_value_typeIT_T0_EENS_22__unordered_map_hasherIS3_S5_T1_Xaasr8is_emptyIS7_EE5valuentsr17__libcpp_is_finalIS7_EE5valueEEENS_21__unordered_map_equalIS3_S5_T2_Xaasr8is_emptyISA_EE5valuentsr17__libcpp_is_finalISA_EE5valueEEENS_21__rebind_alloc_helperINS_16allocator_traitsIT3_EES5_E4typeEE9size_typeE", BYVAL, NOT_PURE, SIDEEFFECTS,
                DOES_RETURN, NOT_ACTUAL, NOT_CGINTRINSIC, NOT_SLAVE,
                IRETURN_I8, "_ZNKSt3__118unordered_multimap5beginENS_12__hash_tableINS_17__hash_value_typeIT_T0_EENS_22__unordered_map_hasherIS3_S5_T1_Xaasr8is_emptyIS7_EE5valuentsr17__libcpp_is_finalIS7_EE5valueEEENS_21__unordered_map_equalIS3_S5_T2_Xaasr8is_emptyISA_EE5valuentsr17__libcpp_is_finalISA_EE5valueEEENS_21__rebind_alloc_helperINS_16allocator_traitsIT3_EES5_E4typeEE9size_typeE", "unordered_multimap::begin", "std::__1::unordered_multimap<typename _Key, typename _Tp, typename _Hash, typename _Pred, typename _Alloc>::begin(std::__1::unordered_multimap::size_type __n)")
/* _ZNKSt3__118unordered_multimap3endENS_12__hash_tableINS_17__hash_value_typeIT_T0_EENS_22__unordered_map_hasherIS3_S5_T1_Xaasr8is_emptyIS7_EE5valuentsr17__libcpp_is_finalIS7_EE5valueEEENS_21__unordered_map_equalIS3_S5_T2_Xaasr8is_emptyISA_EE5valuentsr17__libcpp_is_finalISA_EE5valueEEENS_21__rebind_alloc_helperINS_16allocator_traitsIT3_EES5_E4typeEE9size_typeE unordered_multimap::end */
DEF_INTRN_ENTRY(INTRN__ZNKSt3__118unordered_multimap3endENS_12__hash_tableINS_17__hash_value_typeIT_T0_EENS_22__unordered_map_hasherIS3_S5_T1_Xaasr8is_emptyIS7_EE5valuentsr17__libcpp_is_finalIS7_EE5valueEEENS_21__unordered_map_equalIS3_S5_T2_Xaasr8is_emptyISA_EE5valuentsr17__libcpp_is_finalISA_EE5valueEEENS_21__rebind_alloc_helperINS_16allocator_traitsIT3_EES5_E4typeEE9size_typeE, "_ZNKSt3__118unordered_multimap3endENS_12__hash_tableINS_17__hash_value_typeIT_T0_EENS_22__unordered_map_hasherIS3_S5_T1_Xaasr8is_emptyIS7_EE5valuentsr17__libcpp_is_finalIS7_EE5valueEEENS_21__unordered_map_equalIS3_S5_T2_Xaasr8is_emptyISA_EE5valuentsr17__libcpp_is_finalISA_EE5valueEEENS_21__rebind_alloc_helperINS_16allocator_traitsIT3_EES5_E4typeEE9size_typeE", BYVAL, NOT_PURE, SIDEEFFECTS,
                DOES_RETURN, NOT_ACTUAL, NOT_CGINTRINSIC, NOT_SLAVE,
                IRETURN_I8, "_ZNKSt3__118unordered_multimap3endENS_12__hash_tableINS_17__hash_value_typeIT_T0_EENS_22__unordered_map_hasherIS3_S5_T1_Xaasr8is_emptyIS7_EE5valuentsr17__libcpp_is_finalIS7_EE5valueEEENS_21__unordered_map_equalIS3_S5_T2_Xaasr8is_emptyISA_EE5valuentsr17__libcpp_is_finalISA_EE5valueEEENS_21__rebind_alloc_helperINS_16allocator_traitsIT3_EES5_E4typeEE9size_typeE", "unordered_multimap::end", "std::__1::unordered_multimap<typename _Key, typename _Tp, typename _Hash, typename _Pred, typename _Alloc>::end(std::__1::unordered_multimap::size_type __n)")
/* _ZNKSt3__118unordered_multimap11load_factorEv unordered_multimap::load_factor */
DEF_INTRN_ENTRY(INTRN__ZNKSt3__118unordered_multimap11load_factorEv, "_ZNKSt3__118unordered_multimap11load_factorEv", BYVAL, NOT_PURE, SIDEEFFECTS,
                DOES_RETURN, NOT_ACTUAL, NOT_CGINTRINSIC, NOT_SLAVE,
                IRETURN_F4, "_ZNKSt3__118unordered_multimap11load_factorEv", "unordered_multimap::load_factor", "std::__1::unordered_multimap<typename _Key, typename _Tp, typename _Hash, typename _Pred, typename _Alloc>::load_factor()")
/* _ZNKSt3__118unordered_multimap15max_load_factorEv unordered_multimap::max_load_factor */
DEF_INTRN_ENTRY(INTRN__ZNKSt3__118unordered_multimap15max_load_factorEv, "_ZNKSt3__118unordered_multimap15max_load_factorEv", BYVAL, NOT_PURE, SIDEEFFECTS,
                DOES_RETURN, NOT_ACTUAL, NOT_CGINTRINSIC, NOT_SLAVE,
                IRETURN_F4, "_ZNKSt3__118unordered_multimap15max_load_factorEv", "unordered_multimap::max_load_factor", "std::__1::unordered_multimap<typename _Key, typename _Tp, typename _Hash, typename _Pred, typename _Alloc>::max_load_factor()")
/* _ZNSt3__118unordered_multimap15max_load_factorEf unordered_multimap::max_load_factor */
DEF_INTRN_ENTRY(INTRN__ZNSt3__118unordered_multimap15max_load_factorEf, "_ZNSt3__118unordered_multimap15max_load_factorEf", BYVAL, NOT_PURE, SIDEEFFECTS,
                DOES_RETURN, NOT_ACTUAL, NOT_CGINTRINSIC, NOT_SLAVE,
                IRETURN_V, "_ZNSt3__118unordered_multimap15max_load_factorEf", "unordered_multimap::max_load_factor", "std::__1::unordered_multimap<typename _Key, typename _Tp, typename _Hash, typename _Pred, typename _Alloc>::max_load_factor(float __mlf)")
/* _ZNSt3__118unordered_multimap6rehashENS_12__hash_tableINS_17__hash_value_typeIT_T0_EENS_22__unordered_map_hasherIS3_S5_T1_Xaasr8is_emptyIS7_EE5valuentsr17__libcpp_is_finalIS7_EE5valueEEENS_21__unordered_map_equalIS3_S5_T2_Xaasr8is_emptyISA_EE5valuentsr17__libcpp_is_finalISA_EE5valueEEENS_21__rebind_alloc_helperINS_16allocator_traitsIT3_EES5_E4typeEE9size_typeE unordered_multimap::rehash */
DEF_INTRN_ENTRY(INTRN__ZNSt3__118unordered_multimap6rehashENS_12__hash_tableINS_17__hash_value_typeIT_T0_EENS_22__unordered_map_hasherIS3_S5_T1_Xaasr8is_emptyIS7_EE5valuentsr17__libcpp_is_finalIS7_EE5valueEEENS_21__unordered_map_equalIS3_S5_T2_Xaasr8is_emptyISA_EE5valuentsr17__libcpp_is_finalISA_EE5valueEEENS_21__rebind_alloc_helperINS_16allocator_traitsIT3_EES5_E4typeEE9size_typeE, "_ZNSt3__118unordered_multimap6rehashENS_12__hash_tableINS_17__hash_value_typeIT_T0_EENS_22__unordered_map_hasherIS3_S5_T1_Xaasr8is_emptyIS7_EE5valuentsr17__libcpp_is_finalIS7_EE5valueEEENS_21__unordered_map_equalIS3_S5_T2_Xaasr8is_emptyISA_EE5valuentsr17__libcpp_is_finalISA_EE5valueEEENS_21__rebind_alloc_helperINS_16allocator_traitsIT3_EES5_E4typeEE9size_typeE", BYVAL, NOT_PURE, SIDEEFFECTS,
                DOES_RETURN, NOT_ACTUAL, NOT_CGINTRINSIC, NOT_SLAVE,
                IRETURN_V, "_ZNSt3__118unordered_multimap6rehashENS_12__hash_tableINS_17__hash_value_typeIT_T0_EENS_22__unordered_map_hasherIS3_S5_T1_Xaasr8is_emptyIS7_EE5valuentsr17__libcpp_is_finalIS7_EE5valueEEENS_21__unordered_map_equalIS3_S5_T2_Xaasr8is_emptyISA_EE5valuentsr17__libcpp_is_finalISA_EE5valueEEENS_21__rebind_alloc_helperINS_16allocator_traitsIT3_EES5_E4typeEE9size_typeE", "unordered_multimap::rehash", "std::__1::unordered_multimap<typename _Key, typename _Tp, typename _Hash, typename _Pred, typename _Alloc>::rehash(std::__1::unordered_multimap::size_type __n)")
/* end */
