/*
 * Copyright (C) 2021 Xcalibyte (Shenzhen) Limited.
 */

/*
  Copyright (C) 2000, 2001 Silicon Graphics, Inc.  All Rights Reserved.

  This program is free software; you can redistribute it and/or modify it
  under the terms of version 2 of the GNU General Public License as
  published by the Free Software Foundation.

  This program is distributed in the hope that it would be useful, but
  WITHOUT ANY WARRANTY; without even the implied warranty of
  MERCHANTABILITY or FITNESS FOR A PARTICULAR PURPOSE.

  Further, this software is distributed without any warranty that it is
  free of the rightful claim of any third person regarding infringement
  or the like.  Any license provided herein, whether implied or
  otherwise, applies only to this software file.  Patent licenses, if
  any, provided herein do not apply to combinations of this program with
  other software, or any other product whatsoever.

  You should have received a copy of the GNU General Public License along
  with this program; if not, write the Free Software Foundation, Inc., 59
  Temple Place - Suite 330, Boston MA 02111-1307, USA.

  Contact information:  Silicon Graphics, Inc., 1600 Amphitheatre Pky,
  Mountain View, CA 94043, or:

  http://www.sgi.com

  For further information regarding this notice, see:

  http://oss.sgi.com/projects/GenInfo/NoticeExplan

*/


/* auto-generated intrinsics for c++ gnu_hash_map intrinsic. 2021-10-26 11:57:17 */

/* _ZNK9__gnu_cxx8hash_map13get_allocatorEv hash_map::get_allocator */
DEF_INTRN_ENTRY(INTRN__ZNK9__gnu_cxx8hash_map13get_allocatorEv, "_ZNK9__gnu_cxx8hash_map13get_allocatorEv", BYVAL, NOT_PURE, SIDEEFFECTS,
                DOES_RETURN, NOT_ACTUAL, NOT_CGINTRINSIC, NOT_SLAVE,
                IRETURN_I8, "_ZNK9__gnu_cxx8hash_map13get_allocatorEv", "hash_map::get_allocator", "__gnu_cxx::hash_map<typename _Key, typename _Tp, typename _Hash, typename _Pred, typename _Alloc>::get_allocator()")
/* _ZNK9__gnu_cxx8hash_map5emptyEv hash_map::empty */
DEF_INTRN_ENTRY(INTRN__ZNK9__gnu_cxx8hash_map5emptyEv, "_ZNK9__gnu_cxx8hash_map5emptyEv", BYVAL, NOT_PURE, SIDEEFFECTS,
                DOES_RETURN, NOT_ACTUAL, NOT_CGINTRINSIC, NOT_SLAVE,
                IRETURN_I1, "_ZNK9__gnu_cxx8hash_map5emptyEv", "hash_map::empty", "__gnu_cxx::hash_map<typename _Key, typename _Tp, typename _Hash, typename _Pred, typename _Alloc>::empty()")
/* _ZNK9__gnu_cxx8hash_map4sizeEv hash_map::size */
DEF_INTRN_ENTRY(INTRN__ZNK9__gnu_cxx8hash_map4sizeEv, "_ZNK9__gnu_cxx8hash_map4sizeEv", BYVAL, NOT_PURE, SIDEEFFECTS,
                DOES_RETURN, NOT_ACTUAL, NOT_CGINTRINSIC, NOT_SLAVE,
                IRETURN_I8, "_ZNK9__gnu_cxx8hash_map4sizeEv", "hash_map::size", "__gnu_cxx::hash_map<typename _Key, typename _Tp, typename _Hash, typename _Pred, typename _Alloc>::size()")
/* _ZNK9__gnu_cxx8hash_map8max_sizeEv hash_map::max_size */
DEF_INTRN_ENTRY(INTRN__ZNK9__gnu_cxx8hash_map8max_sizeEv, "_ZNK9__gnu_cxx8hash_map8max_sizeEv", BYVAL, NOT_PURE, SIDEEFFECTS,
                DOES_RETURN, NOT_ACTUAL, NOT_CGINTRINSIC, NOT_SLAVE,
                IRETURN_I8, "_ZNK9__gnu_cxx8hash_map8max_sizeEv", "hash_map::max_size", "__gnu_cxx::hash_map<typename _Key, typename _Tp, typename _Hash, typename _Pred, typename _Alloc>::max_size()")
/* _ZN9__gnu_cxx8hash_map5beginEv hash_map::begin */
DEF_INTRN_ENTRY(INTRN__ZN9__gnu_cxx8hash_map5beginEv, "_ZN9__gnu_cxx8hash_map5beginEv", BYVAL, NOT_PURE, SIDEEFFECTS,
                DOES_RETURN, NOT_ACTUAL, NOT_CGINTRINSIC, NOT_SLAVE,
                IRETURN_I8, "_ZN9__gnu_cxx8hash_map5beginEv", "hash_map::begin", "__gnu_cxx::hash_map<typename _Key, typename _Tp, typename _Hash, typename _Pred, typename _Alloc>::begin()")
/* _ZN9__gnu_cxx8hash_map3endEv hash_map::end */
DEF_INTRN_ENTRY(INTRN__ZN9__gnu_cxx8hash_map3endEv, "_ZN9__gnu_cxx8hash_map3endEv", BYVAL, NOT_PURE, SIDEEFFECTS,
                DOES_RETURN, NOT_ACTUAL, NOT_CGINTRINSIC, NOT_SLAVE,
                IRETURN_I8, "_ZN9__gnu_cxx8hash_map3endEv", "hash_map::end", "__gnu_cxx::hash_map<typename _Key, typename _Tp, typename _Hash, typename _Pred, typename _Alloc>::end()")
/* _ZNK9__gnu_cxx8hash_map5beginEv hash_map::begin */
DEF_INTRN_ENTRY(INTRN__ZNK9__gnu_cxx8hash_map5beginEv, "_ZNK9__gnu_cxx8hash_map5beginEv", BYVAL, NOT_PURE, SIDEEFFECTS,
                DOES_RETURN, NOT_ACTUAL, NOT_CGINTRINSIC, NOT_SLAVE,
                IRETURN_I8, "_ZNK9__gnu_cxx8hash_map5beginEv", "hash_map::begin", "__gnu_cxx::hash_map<typename _Key, typename _Tp, typename _Hash, typename _Pred, typename _Alloc>::begin()")
/* _ZNK9__gnu_cxx8hash_map3endEv hash_map::end */
DEF_INTRN_ENTRY(INTRN__ZNK9__gnu_cxx8hash_map3endEv, "_ZNK9__gnu_cxx8hash_map3endEv", BYVAL, NOT_PURE, SIDEEFFECTS,
                DOES_RETURN, NOT_ACTUAL, NOT_CGINTRINSIC, NOT_SLAVE,
                IRETURN_I8, "_ZNK9__gnu_cxx8hash_map3endEv", "hash_map::end", "__gnu_cxx::hash_map<typename _Key, typename _Tp, typename _Hash, typename _Pred, typename _Alloc>::end()")
/* _ZN9__gnu_cxx8hash_map6insertERKNSt3__14pairIKT_T0_EE hash_map::insert */
DEF_INTRN_ENTRY(INTRN__ZN9__gnu_cxx8hash_map6insertERKNSt3__14pairIKT_T0_EE, "_ZN9__gnu_cxx8hash_map6insertERKNSt3__14pairIKT_T0_EE", BYVAL, NOT_PURE, SIDEEFFECTS,
                DOES_RETURN, NOT_ACTUAL, NOT_CGINTRINSIC, NOT_SLAVE,
                IRETURN_I8, "_ZN9__gnu_cxx8hash_map6insertERKNSt3__14pairIKT_T0_EE", "hash_map::insert", "__gnu_cxx::hash_map<typename _Key, typename _Tp, typename _Hash, typename _Pred, typename _Alloc>::insert(const __gnu_cxx::hash_map::value_type & __x)")
/* _ZN9__gnu_cxx8hash_map6insertENS_25__hash_map_const_iteratorINSt3__112__hash_tableINS2_4pairIT_T0_EENS_17__hash_map_hasherIS7_T1_Xaasr8is_emptyIS9_EE5valuentsr17__libcpp_is_finalIS9_EE5valueEEENS_16__hash_map_equalIS7_T2_Xaasr8is_emptyISC_EE5valuentsr17__libcpp_is_finalISC_EE5valueEEENS2_21__rebind_alloc_helperINS2_16allocator_traitsIT3_EES7_E4typeEE14const_iteratorEEERKNS4_IKS5_S6_EE hash_map::insert */
DEF_INTRN_ENTRY(INTRN__ZN9__gnu_cxx8hash_map6insertENS_25__hash_map_const_iteratorINSt3__112__hash_tableINS2_4pairIT_T0_EENS_17__hash_map_hasherIS7_T1_Xaasr8is_emptyIS9_EE5valuentsr17__libcpp_is_finalIS9_EE5valueEEENS_16__hash_map_equalIS7_T2_Xaasr8is_emptyISC_EE5valuentsr17__libcpp_is_finalISC_EE5valueEEENS2_21__rebind_alloc_helperINS2_16allocator_traitsIT3_EES7_E4typeEE14const_iteratorEEERKNS4_IKS5_S6_EE, "_ZN9__gnu_cxx8hash_map6insertENS_25__hash_map_const_iteratorINSt3__112__hash_tableINS2_4pairIT_T0_EENS_17__hash_map_hasherIS7_T1_Xaasr8is_emptyIS9_EE5valuentsr17__libcpp_is_finalIS9_EE5valueEEENS_16__hash_map_equalIS7_T2_Xaasr8is_emptyISC_EE5valuentsr17__libcpp_is_finalISC_EE5valueEEENS2_21__rebind_alloc_helperINS2_16allocator_traitsIT3_EES7_E4typeEE14const_iteratorEEERKNS4_IKS5_S6_EE", BYVAL, NOT_PURE, SIDEEFFECTS,
                DOES_RETURN, NOT_ACTUAL, NOT_CGINTRINSIC, NOT_SLAVE,
                IRETURN_I8, "_ZN9__gnu_cxx8hash_map6insertENS_25__hash_map_const_iteratorINSt3__112__hash_tableINS2_4pairIT_T0_EENS_17__hash_map_hasherIS7_T1_Xaasr8is_emptyIS9_EE5valuentsr17__libcpp_is_finalIS9_EE5valueEEENS_16__hash_map_equalIS7_T2_Xaasr8is_emptyISC_EE5valuentsr17__libcpp_is_finalISC_EE5valueEEENS2_21__rebind_alloc_helperINS2_16allocator_traitsIT3_EES7_E4typeEE14const_iteratorEEERKNS4_IKS5_S6_EE", "hash_map::insert", "__gnu_cxx::hash_map<typename _Key, typename _Tp, typename _Hash, typename _Pred, typename _Alloc>::insert(__gnu_cxx::hash_map::const_iterator , const __gnu_cxx::hash_map::value_type & __x)")
/* _ZN9__gnu_cxx8hash_map6insertETL0__S1_ hash_map::insert */
DEF_INTRN_ENTRY(INTRN__ZN9__gnu_cxx8hash_map6insertETL0__S1_, "_ZN9__gnu_cxx8hash_map6insertETL0__S1_", BYVAL, NOT_PURE, SIDEEFFECTS,
                DOES_RETURN, NOT_ACTUAL, NOT_CGINTRINSIC, NOT_SLAVE,
                IRETURN_V, "_ZN9__gnu_cxx8hash_map6insertETL0__S1_", "hash_map::insert", "__gnu_cxx::hash_map<typename _Key, typename _Tp, typename _Hash, typename _Pred, typename _Alloc>::insert<typename _InputIterator>(_InputIterator __first, _InputIterator __last)")
/* _ZN9__gnu_cxx8hash_map5eraseENS_25__hash_map_const_iteratorINSt3__112__hash_tableINS2_4pairIT_T0_EENS_17__hash_map_hasherIS7_T1_Xaasr8is_emptyIS9_EE5valuentsr17__libcpp_is_finalIS9_EE5valueEEENS_16__hash_map_equalIS7_T2_Xaasr8is_emptyISC_EE5valuentsr17__libcpp_is_finalISC_EE5valueEEENS2_21__rebind_alloc_helperINS2_16allocator_traitsIT3_EES7_E4typeEE14const_iteratorEEE hash_map::erase */
DEF_INTRN_ENTRY(INTRN__ZN9__gnu_cxx8hash_map5eraseENS_25__hash_map_const_iteratorINSt3__112__hash_tableINS2_4pairIT_T0_EENS_17__hash_map_hasherIS7_T1_Xaasr8is_emptyIS9_EE5valuentsr17__libcpp_is_finalIS9_EE5valueEEENS_16__hash_map_equalIS7_T2_Xaasr8is_emptyISC_EE5valuentsr17__libcpp_is_finalISC_EE5valueEEENS2_21__rebind_alloc_helperINS2_16allocator_traitsIT3_EES7_E4typeEE14const_iteratorEEE, "_ZN9__gnu_cxx8hash_map5eraseENS_25__hash_map_const_iteratorINSt3__112__hash_tableINS2_4pairIT_T0_EENS_17__hash_map_hasherIS7_T1_Xaasr8is_emptyIS9_EE5valuentsr17__libcpp_is_finalIS9_EE5valueEEENS_16__hash_map_equalIS7_T2_Xaasr8is_emptyISC_EE5valuentsr17__libcpp_is_finalISC_EE5valueEEENS2_21__rebind_alloc_helperINS2_16allocator_traitsIT3_EES7_E4typeEE14const_iteratorEEE", BYVAL, NOT_PURE, SIDEEFFECTS,
                DOES_RETURN, NOT_ACTUAL, NOT_CGINTRINSIC, NOT_SLAVE,
                IRETURN_V, "_ZN9__gnu_cxx8hash_map5eraseENS_25__hash_map_const_iteratorINSt3__112__hash_tableINS2_4pairIT_T0_EENS_17__hash_map_hasherIS7_T1_Xaasr8is_emptyIS9_EE5valuentsr17__libcpp_is_finalIS9_EE5valueEEENS_16__hash_map_equalIS7_T2_Xaasr8is_emptyISC_EE5valuentsr17__libcpp_is_finalISC_EE5valueEEENS2_21__rebind_alloc_helperINS2_16allocator_traitsIT3_EES7_E4typeEE14const_iteratorEEE", "hash_map::erase", "__gnu_cxx::hash_map<typename _Key, typename _Tp, typename _Hash, typename _Pred, typename _Alloc>::erase(__gnu_cxx::hash_map::const_iterator __p)")
/* _ZN9__gnu_cxx8hash_map5eraseERKT_ hash_map::erase */
DEF_INTRN_ENTRY(INTRN__ZN9__gnu_cxx8hash_map5eraseERKT_, "_ZN9__gnu_cxx8hash_map5eraseERKT_", BYVAL, NOT_PURE, SIDEEFFECTS,
                DOES_RETURN, NOT_ACTUAL, NOT_CGINTRINSIC, NOT_SLAVE,
                IRETURN_I8, "_ZN9__gnu_cxx8hash_map5eraseERKT_", "hash_map::erase", "__gnu_cxx::hash_map<typename _Key, typename _Tp, typename _Hash, typename _Pred, typename _Alloc>::erase(const __gnu_cxx::hash_map::key_type & __k)")
/* _ZN9__gnu_cxx8hash_map5eraseENS_25__hash_map_const_iteratorINSt3__112__hash_tableINS2_4pairIT_T0_EENS_17__hash_map_hasherIS7_T1_Xaasr8is_emptyIS9_EE5valuentsr17__libcpp_is_finalIS9_EE5valueEEENS_16__hash_map_equalIS7_T2_Xaasr8is_emptyISC_EE5valuentsr17__libcpp_is_finalISC_EE5valueEEENS2_21__rebind_alloc_helperINS2_16allocator_traitsIT3_EES7_E4typeEE14const_iteratorEEESM_ hash_map::erase */
DEF_INTRN_ENTRY(INTRN__ZN9__gnu_cxx8hash_map5eraseENS_25__hash_map_const_iteratorINSt3__112__hash_tableINS2_4pairIT_T0_EENS_17__hash_map_hasherIS7_T1_Xaasr8is_emptyIS9_EE5valuentsr17__libcpp_is_finalIS9_EE5valueEEENS_16__hash_map_equalIS7_T2_Xaasr8is_emptyISC_EE5valuentsr17__libcpp_is_finalISC_EE5valueEEENS2_21__rebind_alloc_helperINS2_16allocator_traitsIT3_EES7_E4typeEE14const_iteratorEEESM_, "_ZN9__gnu_cxx8hash_map5eraseENS_25__hash_map_const_iteratorINSt3__112__hash_tableINS2_4pairIT_T0_EENS_17__hash_map_hasherIS7_T1_Xaasr8is_emptyIS9_EE5valuentsr17__libcpp_is_finalIS9_EE5valueEEENS_16__hash_map_equalIS7_T2_Xaasr8is_emptyISC_EE5valuentsr17__libcpp_is_finalISC_EE5valueEEENS2_21__rebind_alloc_helperINS2_16allocator_traitsIT3_EES7_E4typeEE14const_iteratorEEESM_", BYVAL, NOT_PURE, SIDEEFFECTS,
                DOES_RETURN, NOT_ACTUAL, NOT_CGINTRINSIC, NOT_SLAVE,
                IRETURN_V, "_ZN9__gnu_cxx8hash_map5eraseENS_25__hash_map_const_iteratorINSt3__112__hash_tableINS2_4pairIT_T0_EENS_17__hash_map_hasherIS7_T1_Xaasr8is_emptyIS9_EE5valuentsr17__libcpp_is_finalIS9_EE5valueEEENS_16__hash_map_equalIS7_T2_Xaasr8is_emptyISC_EE5valuentsr17__libcpp_is_finalISC_EE5valueEEENS2_21__rebind_alloc_helperINS2_16allocator_traitsIT3_EES7_E4typeEE14const_iteratorEEESM_", "hash_map::erase", "__gnu_cxx::hash_map<typename _Key, typename _Tp, typename _Hash, typename _Pred, typename _Alloc>::erase(__gnu_cxx::hash_map::const_iterator __first, __gnu_cxx::hash_map::const_iterator __last)")
/* _ZN9__gnu_cxx8hash_map5clearEv hash_map::clear */
DEF_INTRN_ENTRY(INTRN__ZN9__gnu_cxx8hash_map5clearEv, "_ZN9__gnu_cxx8hash_map5clearEv", BYVAL, NOT_PURE, SIDEEFFECTS,
                DOES_RETURN, NOT_ACTUAL, NOT_CGINTRINSIC, NOT_SLAVE,
                IRETURN_V, "_ZN9__gnu_cxx8hash_map5clearEv", "hash_map::clear", "__gnu_cxx::hash_map<typename _Key, typename _Tp, typename _Hash, typename _Pred, typename _Alloc>::clear()")
/* _ZN9__gnu_cxx8hash_map4swapERNS_8hash_mapIT_T0_T1_T2_T3_EE hash_map::swap */
DEF_INTRN_ENTRY(INTRN__ZN9__gnu_cxx8hash_map4swapERNS_8hash_mapIT_T0_T1_T2_T3_EE, "_ZN9__gnu_cxx8hash_map4swapERNS_8hash_mapIT_T0_T1_T2_T3_EE", BYVAL, NOT_PURE, SIDEEFFECTS,
                DOES_RETURN, NOT_ACTUAL, NOT_CGINTRINSIC, NOT_SLAVE,
                IRETURN_V, "_ZN9__gnu_cxx8hash_map4swapERNS_8hash_mapIT_T0_T1_T2_T3_EE", "hash_map::swap", "__gnu_cxx::hash_map<typename _Key, typename _Tp, typename _Hash, typename _Pred, typename _Alloc>::swap(hash_map<_Key, _Tp, _Hash, _Pred, _Alloc> & __u)")
/* _ZN9__gnu_cxx8hash_map4findERKT_ hash_map::find */
DEF_INTRN_ENTRY(INTRN__ZN9__gnu_cxx8hash_map4findERKT_, "_ZN9__gnu_cxx8hash_map4findERKT_", BYVAL, NOT_PURE, SIDEEFFECTS,
                DOES_RETURN, NOT_ACTUAL, NOT_CGINTRINSIC, NOT_SLAVE,
                IRETURN_I8, "_ZN9__gnu_cxx8hash_map4findERKT_", "hash_map::find", "__gnu_cxx::hash_map<typename _Key, typename _Tp, typename _Hash, typename _Pred, typename _Alloc>::find(const __gnu_cxx::hash_map::key_type & __k)")
/* _ZNK9__gnu_cxx8hash_map4findERKT_ hash_map::find */
DEF_INTRN_ENTRY(INTRN__ZNK9__gnu_cxx8hash_map4findERKT_, "_ZNK9__gnu_cxx8hash_map4findERKT_", BYVAL, NOT_PURE, SIDEEFFECTS,
                DOES_RETURN, NOT_ACTUAL, NOT_CGINTRINSIC, NOT_SLAVE,
                IRETURN_I8, "_ZNK9__gnu_cxx8hash_map4findERKT_", "hash_map::find", "__gnu_cxx::hash_map<typename _Key, typename _Tp, typename _Hash, typename _Pred, typename _Alloc>::find(const __gnu_cxx::hash_map::key_type & __k)")
/* _ZNK9__gnu_cxx8hash_map5countERKT_ hash_map::count */
DEF_INTRN_ENTRY(INTRN__ZNK9__gnu_cxx8hash_map5countERKT_, "_ZNK9__gnu_cxx8hash_map5countERKT_", BYVAL, NOT_PURE, SIDEEFFECTS,
                DOES_RETURN, NOT_ACTUAL, NOT_CGINTRINSIC, NOT_SLAVE,
                IRETURN_I8, "_ZNK9__gnu_cxx8hash_map5countERKT_", "hash_map::count", "__gnu_cxx::hash_map<typename _Key, typename _Tp, typename _Hash, typename _Pred, typename _Alloc>::count(const __gnu_cxx::hash_map::key_type & __k)")
/* _ZN9__gnu_cxx8hash_map11equal_rangeERKT_ hash_map::equal_range */
DEF_INTRN_ENTRY(INTRN__ZN9__gnu_cxx8hash_map11equal_rangeERKT_, "_ZN9__gnu_cxx8hash_map11equal_rangeERKT_", BYVAL, NOT_PURE, SIDEEFFECTS,
                DOES_RETURN, NOT_ACTUAL, NOT_CGINTRINSIC, NOT_SLAVE,
                IRETURN_I8, "_ZN9__gnu_cxx8hash_map11equal_rangeERKT_", "hash_map::equal_range", "__gnu_cxx::hash_map<typename _Key, typename _Tp, typename _Hash, typename _Pred, typename _Alloc>::equal_range(const __gnu_cxx::hash_map::key_type & __k)")
/* _ZNK9__gnu_cxx8hash_map11equal_rangeERKT_ hash_map::equal_range */
DEF_INTRN_ENTRY(INTRN__ZNK9__gnu_cxx8hash_map11equal_rangeERKT_, "_ZNK9__gnu_cxx8hash_map11equal_rangeERKT_", BYVAL, NOT_PURE, SIDEEFFECTS,
                DOES_RETURN, NOT_ACTUAL, NOT_CGINTRINSIC, NOT_SLAVE,
                IRETURN_I8, "_ZNK9__gnu_cxx8hash_map11equal_rangeERKT_", "hash_map::equal_range", "__gnu_cxx::hash_map<typename _Key, typename _Tp, typename _Hash, typename _Pred, typename _Alloc>::equal_range(const __gnu_cxx::hash_map::key_type & __k)")
/* _ZN9__gnu_cxx8hash_mapixERKT_ hash_map::operator[] */
DEF_INTRN_ENTRY(INTRN__ZN9__gnu_cxx8hash_mapixERKT_, "_ZN9__gnu_cxx8hash_mapixERKT_", BYVAL, NOT_PURE, SIDEEFFECTS,
                DOES_RETURN, NOT_ACTUAL, NOT_CGINTRINSIC, NOT_SLAVE,
                IRETURN_PV, "_ZN9__gnu_cxx8hash_mapixERKT_", "hash_map::operator[]", "__gnu_cxx::hash_map<typename _Key, typename _Tp, typename _Hash, typename _Pred, typename _Alloc>::operator[](const __gnu_cxx::hash_map::key_type & __k)")
/* end */
